; ModuleID = '21/1833.c'
source_filename = "21/1833.c"
target datalayout = "e-m:e-p270:32:32-p271:32:32-p272:64:64-i64:64-f80:128-n8:16:32:64-S128"
target triple = "x86_64-pc-linux-gnu"

@.str = private unnamed_addr constant [3 x i8] c"%d\00", align 1
@.str.1 = private unnamed_addr constant [6 x i8] c"%d,%d\00", align 1
@.str.2 = private unnamed_addr constant [2 x i8] c"\0A\00", align 1

; Function Attrs: noinline nounwind uwtable
define dso_local void @main() #0 {
  %1 = alloca i32, align 4
  %2 = alloca i32, align 4
  %3 = alloca i32, align 4
  %4 = alloca [300 x i32], align 16
  %5 = alloca float, align 4
  %6 = alloca float, align 4
  %7 = alloca float, align 4
  %8 = bitcast [300 x i32]* %4 to i8*
  call void @llvm.memset.p0i8.i64(i8* align 16 %8, i8 0, i64 1200, i1 false)
  store float 0.000000e+00, float* %5, align 4
  %9 = call i32 (i8*, ...) @__isoc99_scanf(i8* getelementptr inbounds ([3 x i8], [3 x i8]* @.str, i64 0, i64 0), i32* %1)
  store i32 0, i32* %2, align 4
  br label %10

10:                                               ; preds = %19, %0
  %11 = load i32, i32* %2, align 4
  %12 = load i32, i32* %1, align 4
  %13 = icmp slt i32 %11, %12
  br i1 %13, label %14, label %22

14:                                               ; preds = %10
  %15 = load i32, i32* %2, align 4
  %16 = sext i32 %15 to i64
  %17 = getelementptr inbounds [300 x i32], [300 x i32]* %4, i64 0, i64 %16
  %18 = call i32 (i8*, ...) @__isoc99_scanf(i8* getelementptr inbounds ([3 x i8], [3 x i8]* @.str, i64 0, i64 0), i32* %17)
  br label %19

19:                                               ; preds = %14
  %20 = load i32, i32* %2, align 4
  %21 = add nsw i32 %20, 1
  store i32 %21, i32* %2, align 4
  br label %10

22:                                               ; preds = %10
  store i32 0, i32* %2, align 4
  br label %23

23:                                               ; preds = %70, %22
  %24 = load i32, i32* %2, align 4
  %25 = load i32, i32* %1, align 4
  %26 = icmp slt i32 %24, %25
  br i1 %26, label %27, label %73

27:                                               ; preds = %23
  store i32 0, i32* %3, align 4
  br label %28

28:                                               ; preds = %66, %27
  %29 = load i32, i32* %3, align 4
  %30 = load i32, i32* %1, align 4
  %31 = load i32, i32* %2, align 4
  %32 = sub nsw i32 %30, %31
  %33 = icmp slt i32 %29, %32
  br i1 %33, label %34, label %69

34:                                               ; preds = %28
  %35 = load i32, i32* %3, align 4
  %36 = sext i32 %35 to i64
  %37 = getelementptr inbounds [300 x i32], [300 x i32]* %4, i64 0, i64 %36
  %38 = load i32, i32* %37, align 4
  %39 = load i32, i32* %3, align 4
  %40 = add nsw i32 %39, 1
  %41 = sext i32 %40 to i64
  %42 = getelementptr inbounds [300 x i32], [300 x i32]* %4, i64 0, i64 %41
  %43 = load i32, i32* %42, align 4
  %44 = icmp sgt i32 %38, %43
  br i1 %44, label %45, label %65

45:                                               ; preds = %34
  %46 = load i32, i32* %3, align 4
  %47 = sext i32 %46 to i64
  %48 = getelementptr inbounds [300 x i32], [300 x i32]* %4, i64 0, i64 %47
  %49 = load i32, i32* %48, align 4
  %50 = sitofp i32 %49 to float
  store float %50, float* %7, align 4
  %51 = load i32, i32* %3, align 4
  %52 = add nsw i32 %51, 1
  %53 = sext i32 %52 to i64
  %54 = getelementptr inbounds [300 x i32], [300 x i32]* %4, i64 0, i64 %53
  %55 = load i32, i32* %54, align 4
  %56 = load i32, i32* %3, align 4
  %57 = sext i32 %56 to i64
  %58 = getelementptr inbounds [300 x i32], [300 x i32]* %4, i64 0, i64 %57
  store i32 %55, i32* %58, align 4
  %59 = load float, float* %7, align 4
  %60 = fptosi float %59 to i32
  %61 = load i32, i32* %3, align 4
  %62 = add nsw i32 %61, 1
  %63 = sext i32 %62 to i64
  %64 = getelementptr inbounds [300 x i32], [300 x i32]* %4, i64 0, i64 %63
  store i32 %60, i32* %64, align 4
  br label %65

65:                                               ; preds = %45, %34
  br label %66

66:                                               ; preds = %65
  %67 = load i32, i32* %3, align 4
  %68 = add nsw i32 %67, 1
  store i32 %68, i32* %3, align 4
  br label %28

69:                                               ; preds = %28
  br label %70

70:                                               ; preds = %69
  %71 = load i32, i32* %2, align 4
  %72 = add nsw i32 %71, 1
  store i32 %72, i32* %2, align 4
  br label %23

73:                                               ; preds = %23
  store i32 1, i32* %2, align 4
  br label %74

74:                                               ; preds = %86, %73
  %75 = load i32, i32* %2, align 4
  %76 = load i32, i32* %1, align 4
  %77 = icmp sle i32 %75, %76
  br i1 %77, label %78, label %89

78:                                               ; preds = %74
  %79 = load float, float* %5, align 4
  %80 = load i32, i32* %2, align 4
  %81 = sext i32 %80 to i64
  %82 = getelementptr inbounds [300 x i32], [300 x i32]* %4, i64 0, i64 %81
  %83 = load i32, i32* %82, align 4
  %84 = sitofp i32 %83 to float
  %85 = fadd float %79, %84
  store float %85, float* %5, align 4
  br label %86

86:                                               ; preds = %78
  %87 = load i32, i32* %2, align 4
  %88 = add nsw i32 %87, 1
  store i32 %88, i32* %2, align 4
  br label %74

89:                                               ; preds = %74
  %90 = load float, float* %5, align 4
  %91 = load i32, i32* %1, align 4
  %92 = sitofp i32 %91 to float
  %93 = fdiv float %90, %92
  store float %93, float* %6, align 4
  %94 = load float, float* %6, align 4
  %95 = getelementptr inbounds [300 x i32], [300 x i32]* %4, i64 0, i64 1
  %96 = load i32, i32* %95, align 4
  %97 = sitofp i32 %96 to float
  %98 = fsub float %94, %97
  %99 = load i32, i32* %1, align 4
  %100 = sext i32 %99 to i64
  %101 = getelementptr inbounds [300 x i32], [300 x i32]* %4, i64 0, i64 %100
  %102 = load i32, i32* %101, align 4
  %103 = sitofp i32 %102 to float
  %104 = load float, float* %6, align 4
  %105 = fsub float %103, %104
  %106 = fcmp ogt float %98, %105
  br i1 %106, label %107, label %111

107:                                              ; preds = %89
  %108 = getelementptr inbounds [300 x i32], [300 x i32]* %4, i64 0, i64 1
  %109 = load i32, i32* %108, align 4
  %110 = call i32 (i8*, ...) @printf(i8* getelementptr inbounds ([3 x i8], [3 x i8]* @.str, i64 0, i64 0), i32 %109)
  br label %155

111:                                              ; preds = %89
  %112 = load float, float* %6, align 4
  %113 = getelementptr inbounds [300 x i32], [300 x i32]* %4, i64 0, i64 1
  %114 = load i32, i32* %113, align 4
  %115 = sitofp i32 %114 to float
  %116 = fsub float %112, %115
  %117 = load i32, i32* %1, align 4
  %118 = sext i32 %117 to i64
  %119 = getelementptr inbounds [300 x i32], [300 x i32]* %4, i64 0, i64 %118
  %120 = load i32, i32* %119, align 4
  %121 = sitofp i32 %120 to float
  %122 = load float, float* %6, align 4
  %123 = fsub float %121, %122
  %124 = fcmp olt float %116, %123
  br i1 %124, label %125, label %131

125:                                              ; preds = %111
  %126 = load i32, i32* %1, align 4
  %127 = sext i32 %126 to i64
  %128 = getelementptr inbounds [300 x i32], [300 x i32]* %4, i64 0, i64 %127
  %129 = load i32, i32* %128, align 4
  %130 = call i32 (i8*, ...) @printf(i8* getelementptr inbounds ([3 x i8], [3 x i8]* @.str, i64 0, i64 0), i32 %129)
  br label %154

131:                                              ; preds = %111
  %132 = load float, float* %6, align 4
  %133 = getelementptr inbounds [300 x i32], [300 x i32]* %4, i64 0, i64 1
  %134 = load i32, i32* %133, align 4
  %135 = sitofp i32 %134 to float
  %136 = fsub float %132, %135
  %137 = load i32, i32* %1, align 4
  %138 = sext i32 %137 to i64
  %139 = getelementptr inbounds [300 x i32], [300 x i32]* %4, i64 0, i64 %138
  %140 = load i32, i32* %139, align 4
  %141 = sitofp i32 %140 to float
  %142 = load float, float* %6, align 4
  %143 = fsub float %141, %142
  %144 = fcmp oeq float %136, %143
  br i1 %144, label %145, label %153

145:                                              ; preds = %131
  %146 = getelementptr inbounds [300 x i32], [300 x i32]* %4, i64 0, i64 1
  %147 = load i32, i32* %146, align 4
  %148 = load i32, i32* %1, align 4
  %149 = sext i32 %148 to i64
  %150 = getelementptr inbounds [300 x i32], [300 x i32]* %4, i64 0, i64 %149
  %151 = load i32, i32* %150, align 4
  %152 = call i32 (i8*, ...) @printf(i8* getelementptr inbounds ([6 x i8], [6 x i8]* @.str.1, i64 0, i64 0), i32 %147, i32 %151)
  br label %153

153:                                              ; preds = %145, %131
  br label %154

154:                                              ; preds = %153, %125
  br label %155

155:                                              ; preds = %154, %107
  %156 = call i32 (i8*, ...) @printf(i8* getelementptr inbounds ([2 x i8], [2 x i8]* @.str.2, i64 0, i64 0))
  ret void
}

; Function Attrs: argmemonly nounwind willreturn
declare void @llvm.memset.p0i8.i64(i8* nocapture writeonly, i8, i64, i1 immarg) #1

declare dso_local i32 @__isoc99_scanf(i8*, ...) #2

declare dso_local i32 @printf(i8*, ...) #2


!llvm.module.flags = !{!0}
!llvm.ident = !{!1}

!0 = !{i32 1, !"wchar_size", i32 4}
!1 = !{!"clang version 10.0.0-4ubuntu1 "}
